; Function Attrs: nounwind uwtable
define range(i32 -1, 1) i32 @H5HF_size(ptr noundef readonly captures(none) %0, ptr noundef %1) local_unnamed_addr #1 {
  %3 = alloca i64, align 8
  call void @llvm.lifetime.start.p0(i64 8, ptr nonnull %3) #4
  store i64 0, ptr %3, align 8, !tbaa !54
  %4 = load i8, ptr @H5HF_init_g, align 1, !tbaa !3, !range !7, !noundef !8
  %5 = trunc nuw i8 %4 to i1
  %6 = load i8, ptr @H5_libterm_g, align 1, !range !7
  %7 = trunc nuw i8 %6 to i1
  %8 = select i1 %5, i1 true, i1 %7
  br i1 %8, label %9, label %.thread, !prof !9

.thread:                                          ; preds = %2
  store i8 1, ptr @H5HF_init_g, align 1, !tbaa !3
  br label %12

9:                                                ; preds = %2
  %10 = xor i1 %7, true
  %11 = select i1 %5, i1 true, i1 %10
  br i1 %11, label %12, label %.thread41, !prof !55

12:                                               ; preds = %.thread, %9
  %13 = load ptr, ptr %0, align 8, !tbaa !10
  %14 = getelementptr inbounds nuw i8, ptr %13, i64 584
  %15 = load i64, ptr %14, align 8, !tbaa !56
  %16 = load i64, ptr %1, align 8, !tbaa !54
  %17 = add i64 %16, %15
  store i64 %17, ptr %1, align 8, !tbaa !54
  %18 = getelementptr inbounds nuw i8, ptr %13, i64 512
  %19 = load i64, ptr %18, align 8, !tbaa !38
  %20 = add i64 %19, %17
  store i64 %20, ptr %1, align 8, !tbaa !54
  %21 = getelementptr inbounds nuw i8, ptr %13, i64 536
  %22 = load i64, ptr %21, align 8, !tbaa !46
  %23 = add i64 %22, %20
  store i64 %23, ptr %1, align 8, !tbaa !54
  %24 = getelementptr inbounds nuw i8, ptr %13, i64 296
  %25 = load i64, ptr %24, align 8, !tbaa !57
  %.not = icmp eq i64 %25, -1
  br i1 %.not, label %38, label %26

26:                                               ; preds = %12
  %27 = getelementptr inbounds nuw i8, ptr %13, i64 304
  %28 = load i32, ptr %27, align 8, !tbaa !58
  %.not37 = icmp eq i32 %28, 0
  br i1 %.not37, label %38, label %29

29:                                               ; preds = %26
  %30 = getelementptr inbounds nuw i8, ptr %13, i64 600
  %31 = load ptr, ptr %30, align 8, !tbaa !59
  %32 = tail call i32 @H5HF__man_iblock_size(ptr noundef %31, ptr noundef nonnull %13, i64 noundef %25, i32 noundef %28, ptr noundef null, i32 noundef 0, ptr noundef nonnull %1) #4
  %33 = icmp slt i32 %32, 0
  br i1 %33, label %34, label %38

34:                                               ; preds = %29
  %35 = load i64, ptr @H5E_HEAP_g, align 8, !tbaa !54
  %36 = load i64, ptr @H5E_CANTGET_g, align 8, !tbaa !54
  %37 = tail call i32 (ptr, ptr, i32, i64, i64, ptr, ...) @H5E_printf_stack(ptr noundef nonnull @.str, ptr noundef nonnull @__func__.H5HF_size, i32 noundef 135, i64 noundef %35, i64 noundef %36, ptr noundef nonnull @.str.1) #4
  br label %.thread41

38:                                               ; preds = %29, %26, %12
  %39 = getelementptr inbounds nuw i8, ptr %13, i64 408
  %40 = load i64, ptr %39, align 8, !tbaa !60
  %.not38 = icmp eq i64 %40, -1
  br i1 %.not38, label %56, label %41

41:                                               ; preds = %38
  %42 = getelementptr inbounds nuw i8, ptr %13, i64 600
  %43 = load ptr, ptr %42, align 8, !tbaa !59
  %44 = tail call ptr @H5B2_open(ptr noundef %43, i64 noundef %40, ptr noundef %43) #4
  %45 = icmp eq ptr %44, null
  br i1 %45, label %46, label %50

46:                                               ; preds = %41
  %47 = load i64, ptr @H5E_HEAP_g, align 8, !tbaa !54
  %48 = load i64, ptr @H5E_CANTOPENOBJ_g, align 8, !tbaa !54
  %49 = tail call i32 (ptr, ptr, i32, i64, i64, ptr, ...) @H5E_printf_stack(ptr noundef nonnull @.str, ptr noundef nonnull @__func__.H5HF_size, i32 noundef 142, i64 noundef %47, i64 noundef %48, ptr noundef nonnull @.str.2) #4
  br label %.thread41

50:                                               ; preds = %41
  %51 = tail call i32 @H5B2_size(ptr noundef nonnull %44, ptr noundef nonnull %1) #4
  %52 = icmp slt i32 %51, 0
  br i1 %52, label %.thread45, label %56

.thread45:                                        ; preds = %50
  %53 = load i64, ptr @H5E_HEAP_g, align 8, !tbaa !54
  %54 = load i64, ptr @H5E_CANTGET_g, align 8, !tbaa !54
  %55 = tail call i32 (ptr, ptr, i32, i64, i64, ptr, ...) @H5E_printf_stack(ptr noundef nonnull @.str, ptr noundef nonnull @__func__.H5HF_size, i32 noundef 146, i64 noundef %53, i64 noundef %54, ptr noundef nonnull @.str.3) #4
  br label %71

56:                                               ; preds = %50, %38
  %.131 = phi ptr [ %44, %50 ], [ null, %38 ]
  %57 = getelementptr inbounds nuw i8, ptr %13, i64 384
  %58 = load i64, ptr %57, align 8, !tbaa !61
  %.not39 = icmp eq i64 %58, -1
  br i1 %.not39, label %70, label %59

59:                                               ; preds = %56
  %60 = call i32 @H5HF__space_size(ptr noundef nonnull %13, ptr noundef nonnull %3) #4
  %61 = icmp slt i32 %60, 0
  br i1 %61, label %62, label %66

62:                                               ; preds = %59
  %63 = load i64, ptr @H5E_HEAP_g, align 8, !tbaa !54
  %64 = load i64, ptr @H5E_CANTGET_g, align 8, !tbaa !54
  %65 = call i32 (ptr, ptr, i32, i64, i64, ptr, ...) @H5E_printf_stack(ptr noundef nonnull @.str, ptr noundef nonnull @__func__.H5HF_size, i32 noundef 152, i64 noundef %63, i64 noundef %64, ptr noundef nonnull @.str.4) #4
  br label %70

66:                                               ; preds = %59
  %67 = load i64, ptr %3, align 8, !tbaa !54
  %68 = load i64, ptr %1, align 8, !tbaa !54
  %69 = add i64 %68, %67
  store i64 %69, ptr %1, align 8, !tbaa !54
  br label %70

70:                                               ; preds = %56, %66, %62
  %.1 = phi i32 [ -1, %62 ], [ 0, %66 ], [ 0, %56 ]
  %.not40 = icmp eq ptr %.131, null
  br i1 %.not40, label %.thread41, label %71

71:                                               ; preds = %.thread45, %70
  %.150 = phi i32 [ -1, %.thread45 ], [ %.1, %70 ]
  %.03049 = phi ptr [ %44, %.thread45 ], [ %.131, %70 ]
  %72 = call i32 @H5B2_close(ptr noundef nonnull %.03049) #4
  %73 = icmp slt i32 %72, 0
  br i1 %73, label %74, label %.thread41

74:                                               ; preds = %71
  %75 = load i64, ptr @H5E_HEAP_g, align 8, !tbaa !54
  %76 = load i64, ptr @H5E_CANTCLOSEOBJ_g, align 8, !tbaa !54
  %77 = call i32 (ptr, ptr, i32, i64, i64, ptr, ...) @H5E_printf_stack(ptr noundef nonnull @.str, ptr noundef nonnull @__func__.H5HF_size, i32 noundef 159, i64 noundef %75, i64 noundef %76, ptr noundef nonnull @.str.5) #4
  br label %.thread41

.thread41:                                        ; preds = %46, %34, %70, %71, %74, %9
  %.0 = phi i32 [ -1, %74 ], [ %.150, %71 ], [ %.1, %70 ], [ 0, %9 ], [ -1, %34 ], [ -1, %46 ]
  call void @llvm.lifetime.end.p0(i64 8, ptr nonnull %3) #4
  ret i32 %.0
}